target datalayout = "e-m:e-p270:32:32-p271:32:32-p272:64:64-i64:64-i128:128-f80:128-n8:16:32:64-S128"
target triple = "x86_64-pc-linux-gnu"

%struct.ec_group_st = type { ptr, ptr, %struct.bignum_st, %struct.bignum_st, i32, ptr, %struct.bignum_st, %struct.bignum_st, %struct.bignum_st, i32, ptr, %struct.bignum_st }
%struct.bignum_st = type { ptr, i32, i32, i32, i32 }

@.str = private unnamed_addr constant [129 x i8] c"generated/home/dtcxzyw/WorkSpace/Projects/compilers/llvm-opt-benchmark/bench/libquic/libquic/boringssl/crypto/ec/ec_montgomery.c\00", align 1

; Function Attrs: nounwind uwtable
define hidden i32 @ec_GFp_mont_field_sqr(ptr noundef %0, ptr noundef %1, ptr noundef %2, ptr noundef %3) #0 {
  %5 = alloca i32, align 4
  %6 = alloca ptr, align 8
  %7 = alloca ptr, align 8
  %8 = alloca ptr, align 8
  %9 = alloca ptr, align 8
  store ptr %0, ptr %6, align 8, !tbaa !6
  store ptr %1, ptr %7, align 8, !tbaa !20
  store ptr %2, ptr %8, align 8, !tbaa !20
  store ptr %3, ptr %9, align 8, !tbaa !22
  %10 = load ptr, ptr %6, align 8, !tbaa !6
  %11 = getelementptr inbounds nuw %struct.ec_group_st, ptr %10, i32 0, i32 10
  %12 = load ptr, ptr %11, align 8, !tbaa !13
  %13 = icmp eq ptr %12, null
  br i1 %13, label %14, label %15

14:                                               ; preds = %4
  call void @ERR_put_error(i32 noundef 15, i32 noundef 0, i32 noundef 117, ptr noundef @.str, i32 noundef 171)
  store i32 0, ptr %5, align 4
  br label %24

15:                                               ; preds = %4
  %16 = load ptr, ptr %7, align 8, !tbaa !20
  %17 = load ptr, ptr %8, align 8, !tbaa !20
  %18 = load ptr, ptr %8, align 8, !tbaa !20
  %19 = load ptr, ptr %6, align 8, !tbaa !6
  %20 = getelementptr inbounds nuw %struct.ec_group_st, ptr %19, i32 0, i32 10
  %21 = load ptr, ptr %20, align 8, !tbaa !13
  %22 = load ptr, ptr %9, align 8, !tbaa !22
  %23 = call i32 @BN_mod_mul_montgomery(ptr noundef %16, ptr noundef %17, ptr noundef %18, ptr noundef %21, ptr noundef %22)
  store i32 %23, ptr %5, align 4
  br label %24

24:                                               ; preds = %15, %14
  %25 = load i32, ptr %5, align 4
  ret i32 %25
}