; Function Attrs: nounwind uwtable
define hidden i32 @ec_GFp_mont_field_sqr(ptr noundef readonly captures(none) %0, ptr noundef %1, ptr noundef %2, ptr noundef %3) #0 {
  %5 = getelementptr inbounds nuw i8, ptr %0, i64 160
  %6 = load ptr, ptr %5, align 8, !tbaa !6
  %7 = icmp eq ptr %6, null
  br i1 %7, label %8, label %9

8:                                                ; preds = %4
  tail call void @ERR_put_error(i32 noundef 15, i32 noundef 0, i32 noundef 117, ptr noundef nonnull @.str, i32 noundef 171) #3
  br label %11

9:                                                ; preds = %4
  %10 = tail call i32 @BN_mod_mul_montgomery(ptr noundef %1, ptr noundef %2, ptr noundef %2, ptr noundef nonnull %6, ptr noundef %3) #3
  br label %11

11:                                               ; preds = %9, %8
  %.0 = phi i32 [ 0, %8 ], [ %10, %9 ]
  ret i32 %.0
}